target datalayout = "e-m:e-p270:32:32-p271:32:32-p272:64:64-i64:64-i128:128-f80:128-n8:16:32:64-S128"
target triple = "x86_64-pc-linux-gnu"

; Function Attrs: alwaysinline nounwind willreturn memory(none) uwtable
define internal zeroext i8 @av_clip_uint8_c(i32 noundef %0) #7 {
  %2 = alloca i8, align 1
  %3 = alloca i32, align 4
  store i32 %0, ptr %3, align 4, !tbaa !36
  %4 = load i32, ptr %3, align 4, !tbaa !36
  %5 = and i32 %4, -256
  %6 = icmp ne i32 %5, 0
  br i1 %6, label %7, label %12

7:                                                ; preds = %1
  %8 = load i32, ptr %3, align 4, !tbaa !36
  %9 = xor i32 %8, -1
  %10 = ashr i32 %9, 31
  %11 = trunc i32 %10 to i8
  store i8 %11, ptr %2, align 1
  br label %15

12:                                               ; preds = %1
  %13 = load i32, ptr %3, align 4, !tbaa !36
  %14 = trunc i32 %13 to i8
  store i8 %14, ptr %2, align 1
  br label %15

15:                                               ; preds = %12, %7
  %16 = load i8, ptr %2, align 1
  ret i8 %16
}

; Function Attrs: alwaysinline nounwind willreturn memory(none) uwtable
define internal i32 @av_clip_c(i32 noundef %0, i32 noundef %1, i32 noundef %2) #7 {
  %4 = alloca i32, align 4
  %5 = alloca i32, align 4
  %6 = alloca i32, align 4
  %7 = alloca i32, align 4
  store i32 %0, ptr %5, align 4, !tbaa !36
  store i32 %1, ptr %6, align 4, !tbaa !36
  store i32 %2, ptr %7, align 4, !tbaa !36
  %8 = load i32, ptr %5, align 4, !tbaa !36
  %9 = load i32, ptr %6, align 4, !tbaa !36
  %10 = icmp slt i32 %8, %9
  br i1 %10, label %11, label %13

11:                                               ; preds = %3
  %12 = load i32, ptr %6, align 4, !tbaa !36
  store i32 %12, ptr %4, align 4
  br label %21

13:                                               ; preds = %3
  %14 = load i32, ptr %5, align 4, !tbaa !36
  %15 = load i32, ptr %7, align 4, !tbaa !36
  %16 = icmp sgt i32 %14, %15
  br i1 %16, label %17, label %19

17:                                               ; preds = %13
  %18 = load i32, ptr %7, align 4, !tbaa !36
  store i32 %18, ptr %4, align 4
  br label %21

19:                                               ; preds = %13
  %20 = load i32, ptr %5, align 4, !tbaa !36
  store i32 %20, ptr %4, align 4
  br label %21

21:                                               ; preds = %19, %17, %11
  %22 = load i32, ptr %4, align 4
  ret i32 %22
}

; Function Attrs: nounwind uwtable
define internal void @filter_chroma_edge(ptr noundef %0, i32 noundef %1, i32 noundef %2, i32 noundef %3, i32 noundef %4, i32 noundef %5, i32 noundef %6) #1 {
  %8 = alloca ptr, align 8
  %9 = alloca i32, align 4
  %10 = alloca i32, align 4
  %11 = alloca i32, align 4
  %12 = alloca i32, align 4
  %13 = alloca i32, align 4
  %14 = alloca i32, align 4
  %15 = alloca i32, align 4
  %16 = alloca i32, align 4
  %17 = alloca i32, align 4
  %18 = alloca i32, align 4
  %19 = alloca i32, align 4
  %20 = alloca i32, align 4
  %21 = alloca i32, align 4
  %22 = alloca i32, align 4
  %23 = alloca i32, align 4
  %24 = alloca i32, align 4
  %25 = alloca i32, align 4
  %26 = alloca i32, align 4
  %27 = alloca i32, align 4
  store ptr %0, ptr %8, align 8, !tbaa !46
  store i32 %1, ptr %9, align 4, !tbaa !36
  store i32 %2, ptr %10, align 4, !tbaa !36
  store i32 %3, ptr %11, align 4, !tbaa !36
  store i32 %4, ptr %12, align 4, !tbaa !36
  store i32 %5, ptr %13, align 4, !tbaa !36
  store i32 %6, ptr %14, align 4, !tbaa !36
  call void @llvm.lifetime.start.p0(i64 4, ptr %15) #11
  %28 = load ptr, ptr %8, align 8, !tbaa !46
  %29 = load i32, ptr %9, align 4, !tbaa !36
  %30 = mul nsw i32 -2, %29
  %31 = sext i32 %30 to i64
  %32 = getelementptr inbounds i8, ptr %28, i64 %31
  %33 = load i8, ptr %32, align 1, !tbaa !48
  %34 = zext i8 %33 to i32
  %35 = load ptr, ptr %8, align 8, !tbaa !46
  %36 = load i32, ptr %9, align 4, !tbaa !36
  %37 = sub nsw i32 0, %36
  %38 = sext i32 %37 to i64
  %39 = getelementptr inbounds i8, ptr %35, i64 %38
  %40 = load i8, ptr %39, align 1, !tbaa !48
  %41 = zext i8 %40 to i32
  %42 = sub nsw i32 %34, %41
  %43 = icmp sge i32 %42, 0
  br i1 %43, label %44, label %60

44:                                               ; preds = %7
  %45 = load ptr, ptr %8, align 8, !tbaa !46
  %46 = load i32, ptr %9, align 4, !tbaa !36
  %47 = mul nsw i32 -2, %46
  %48 = sext i32 %47 to i64
  %49 = getelementptr inbounds i8, ptr %45, i64 %48
  %50 = load i8, ptr %49, align 1, !tbaa !48
  %51 = zext i8 %50 to i32
  %52 = load ptr, ptr %8, align 8, !tbaa !46
  %53 = load i32, ptr %9, align 4, !tbaa !36
  %54 = sub nsw i32 0, %53
  %55 = sext i32 %54 to i64
  %56 = getelementptr inbounds i8, ptr %52, i64 %55
  %57 = load i8, ptr %56, align 1, !tbaa !48
  %58 = zext i8 %57 to i32
  %59 = sub nsw i32 %51, %58
  br label %77

60:                                               ; preds = %7
  %61 = load ptr, ptr %8, align 8, !tbaa !46
  %62 = load i32, ptr %9, align 4, !tbaa !36
  %63 = mul nsw i32 -2, %62
  %64 = sext i32 %63 to i64
  %65 = getelementptr inbounds i8, ptr %61, i64 %64
  %66 = load i8, ptr %65, align 1, !tbaa !48
  %67 = zext i8 %66 to i32
  %68 = load ptr, ptr %8, align 8, !tbaa !46
  %69 = load i32, ptr %9, align 4, !tbaa !36
  %70 = sub nsw i32 0, %69
  %71 = sext i32 %70 to i64
  %72 = getelementptr inbounds i8, ptr %68, i64 %71
  %73 = load i8, ptr %72, align 1, !tbaa !48
  %74 = zext i8 %73 to i32
  %75 = sub nsw i32 %67, %74
  %76 = sub nsw i32 0, %75
  br label %77

77:                                               ; preds = %60, %44
  %78 = phi i32 [ %59, %44 ], [ %76, %60 ]
  %79 = mul nsw i32 4, %78
  store i32 %79, ptr %15, align 4, !tbaa !36
  call void @llvm.lifetime.start.p0(i64 4, ptr %16) #11
  %80 = load ptr, ptr %8, align 8, !tbaa !46
  %81 = load i32, ptr %9, align 4, !tbaa !36
  %82 = sext i32 %81 to i64
  %83 = getelementptr inbounds i8, ptr %80, i64 %82
  %84 = load i8, ptr %83, align 1, !tbaa !48
  %85 = zext i8 %84 to i32
  %86 = load ptr, ptr %8, align 8, !tbaa !46
  %87 = getelementptr inbounds i8, ptr %86, i64 0
  %88 = load i8, ptr %87, align 1, !tbaa !48
  %89 = zext i8 %88 to i32
  %90 = sub nsw i32 %85, %89
  %91 = icmp sge i32 %90, 0
  br i1 %91, label %92, label %104

92:                                               ; preds = %77
  %93 = load ptr, ptr %8, align 8, !tbaa !46
  %94 = load i32, ptr %9, align 4, !tbaa !36
  %95 = sext i32 %94 to i64
  %96 = getelementptr inbounds i8, ptr %93, i64 %95
  %97 = load i8, ptr %96, align 1, !tbaa !48
  %98 = zext i8 %97 to i32
  %99 = load ptr, ptr %8, align 8, !tbaa !46
  %100 = getelementptr inbounds i8, ptr %99, i64 0
  %101 = load i8, ptr %100, align 1, !tbaa !48
  %102 = zext i8 %101 to i32
  %103 = sub nsw i32 %98, %102
  br label %117

104:                                              ; preds = %77
  %105 = load ptr, ptr %8, align 8, !tbaa !46
  %106 = load i32, ptr %9, align 4, !tbaa !36
  %107 = sext i32 %106 to i64
  %108 = getelementptr inbounds i8, ptr %105, i64 %107
  %109 = load i8, ptr %108, align 1, !tbaa !48
  %110 = zext i8 %109 to i32
  %111 = load ptr, ptr %8, align 8, !tbaa !46
  %112 = getelementptr inbounds i8, ptr %111, i64 0
  %113 = load i8, ptr %112, align 1, !tbaa !48
  %114 = zext i8 %113 to i32
  %115 = sub nsw i32 %110, %114
  %116 = sub nsw i32 0, %115
  br label %117

117:                                              ; preds = %104, %92
  %118 = phi i32 [ %103, %92 ], [ %116, %104 ]
  %119 = mul nsw i32 4, %118
  store i32 %119, ptr %16, align 4, !tbaa !36
  call void @llvm.lifetime.start.p0(i64 4, ptr %17) #11
  %120 = load i32, ptr %15, align 4, !tbaa !36
  %121 = icmp sge i32 %120, 0
  br i1 %121, label %122, label %124

122:                                              ; preds = %117
  %123 = load i32, ptr %15, align 4, !tbaa !36
  br label %127

124:                                              ; preds = %117
  %125 = load i32, ptr %15, align 4, !tbaa !36
  %126 = sub nsw i32 0, %125
  br label %127

127:                                              ; preds = %124, %122
  %128 = phi i32 [ %123, %122 ], [ %126, %124 ]
  %129 = load i32, ptr %14, align 4, !tbaa !36
  %130 = icmp slt i32 %128, %129
  %131 = select i1 %130, i32 3, i32 1
  store i32 %131, ptr %17, align 4, !tbaa !36
  call void @llvm.lifetime.start.p0(i64 4, ptr %18) #11
  %132 = load i32, ptr %16, align 4, !tbaa !36
  %133 = icmp sge i32 %132, 0
  br i1 %133, label %134, label %136

134:                                              ; preds = %127
  %135 = load i32, ptr %16, align 4, !tbaa !36
  br label %139

136:                                              ; preds = %127
  %137 = load i32, ptr %16, align 4, !tbaa !36
  %138 = sub nsw i32 0, %137
  br label %139

139:                                              ; preds = %136, %134
  %140 = phi i32 [ %135, %134 ], [ %138, %136 ]
  %141 = load i32, ptr %14, align 4, !tbaa !36
  %142 = icmp slt i32 %140, %141
  %143 = select i1 %142, i32 3, i32 1
  store i32 %143, ptr %18, align 4, !tbaa !36
  call void @llvm.lifetime.start.p0(i64 4, ptr %19) #11
  call void @llvm.lifetime.start.p0(i64 4, ptr %20) #11
  call void @llvm.lifetime.start.p0(i64 4, ptr %21) #11
  %144 = load i32, ptr %18, align 4, !tbaa !36
  %145 = load i32, ptr %17, align 4, !tbaa !36
  %146 = add nsw i32 %144, %145
  %147 = icmp sle i32 %146, 2
  br i1 %147, label %148, label %149

148:                                              ; preds = %139
  store i32 1, ptr %22, align 4
  br label %273

149:                                              ; preds = %139
  %150 = load i32, ptr %11, align 4, !tbaa !36
  %151 = load i32, ptr %12, align 4, !tbaa !36
  %152 = add nsw i32 %150, %151
  %153 = load i32, ptr %17, align 4, !tbaa !36
  %154 = add nsw i32 %152, %153
  %155 = load i32, ptr %18, align 4, !tbaa !36
  %156 = add nsw i32 %154, %155
  %157 = ashr i32 %156, 1
  store i32 %157, ptr %19, align 4, !tbaa !36
  %158 = load i32, ptr %17, align 4, !tbaa !36
  %159 = icmp eq i32 %158, 1
  br i1 %159, label %163, label %160

160:                                              ; preds = %149
  %161 = load i32, ptr %18, align 4, !tbaa !36
  %162 = icmp eq i32 %161, 1
  br i1 %162, label %163, label %164

163:                                              ; preds = %160, %149
  store i32 384, ptr %20, align 4, !tbaa !36
  store i32 1, ptr %21, align 4, !tbaa !36
  br label %165

164:                                              ; preds = %160
  store i32 256, ptr %20, align 4, !tbaa !36
  store i32 0, ptr %21, align 4, !tbaa !36
  br label %165

165:                                              ; preds = %164, %163
  call void @llvm.lifetime.start.p0(i64 4, ptr %23) #11
  store i32 0, ptr %23, align 4, !tbaa !36
  br label %166

166:                                              ; preds = %269, %165
  %167 = load i32, ptr %23, align 4, !tbaa !36
  %168 = icmp slt i32 %167, 2
  br i1 %168, label %170, label %169

169:                                              ; preds = %166
  store i32 2, ptr %22, align 4
  call void @llvm.lifetime.end.p0(i64 4, ptr %23) #11
  br label %272

170:                                              ; preds = %166
  call void @llvm.lifetime.start.p0(i64 4, ptr %24) #11
  %171 = load ptr, ptr %8, align 8, !tbaa !46
  %172 = getelementptr inbounds i8, ptr %171, i64 0
  %173 = load i8, ptr %172, align 1, !tbaa !48
  %174 = zext i8 %173 to i32
  %175 = load ptr, ptr %8, align 8, !tbaa !46
  %176 = load i32, ptr %9, align 4, !tbaa !36
  %177 = sub nsw i32 0, %176
  %178 = sext i32 %177 to i64
  %179 = getelementptr inbounds i8, ptr %175, i64 %178
  %180 = load i8, ptr %179, align 1, !tbaa !48
  %181 = zext i8 %180 to i32
  %182 = sub nsw i32 %174, %181
  store i32 %182, ptr %24, align 4, !tbaa !36
  call void @llvm.lifetime.start.p0(i64 4, ptr %25) #11
  %183 = load i32, ptr %13, align 4, !tbaa !36
  %184 = load i32, ptr %24, align 4, !tbaa !36
  %185 = icmp sge i32 %184, 0
  br i1 %185, label %186, label %188

186:                                              ; preds = %170
  %187 = load i32, ptr %24, align 4, !tbaa !36
  br label %191

188:                                              ; preds = %170
  %189 = load i32, ptr %24, align 4, !tbaa !36
  %190 = sub nsw i32 0, %189
  br label %191

191:                                              ; preds = %188, %186
  %192 = phi i32 [ %187, %186 ], [ %190, %188 ]
  %193 = mul nsw i32 %183, %192
  %194 = and i32 %193, -128
  store i32 %194, ptr %25, align 4, !tbaa !36
  %195 = load i32, ptr %24, align 4, !tbaa !36
  %196 = icmp ne i32 %195, 0
  br i1 %196, label %197, label %264

197:                                              ; preds = %191
  %198 = load i32, ptr %25, align 4, !tbaa !36
  %199 = load i32, ptr %20, align 4, !tbaa !36
  %200 = icmp sle i32 %198, %199
  br i1 %200, label %201, label %264

201:                                              ; preds = %197
  call void @llvm.lifetime.start.p0(i64 4, ptr %26) #11
  %202 = load i32, ptr %21, align 4, !tbaa !36
  %203 = icmp ne i32 %202, 0
  br i1 %203, label %204, label %214

204:                                              ; preds = %201
  %205 = load i32, ptr %24, align 4, !tbaa !36
  %206 = add nsw i32 %205, 1
  %207 = ashr i32 %206, 1
  %208 = load i32, ptr %19, align 4, !tbaa !36
  %209 = ashr i32 %208, 1
  %210 = sub nsw i32 0, %209
  %211 = load i32, ptr %19, align 4, !tbaa !36
  %212 = ashr i32 %211, 1
  %213 = call i32 @av_clip_c(i32 noundef %207, i32 noundef %210, i32 noundef %212) #12
  store i32 %213, ptr %26, align 4, !tbaa !36
  br label %239

214:                                              ; preds = %201
  call void @llvm.lifetime.start.p0(i64 4, ptr %27) #11
  %215 = load ptr, ptr %8, align 8, !tbaa !46
  %216 = load i32, ptr %9, align 4, !tbaa !36
  %217 = mul nsw i32 -2, %216
  %218 = sext i32 %217 to i64
  %219 = getelementptr inbounds i8, ptr %215, i64 %218
  %220 = load i8, ptr %219, align 1, !tbaa !48
  %221 = zext i8 %220 to i32
  %222 = load ptr, ptr %8, align 8, !tbaa !46
  %223 = load i32, ptr %9, align 4, !tbaa !36
  %224 = sext i32 %223 to i64
  %225 = getelementptr inbounds i8, ptr %222, i64 %224
  %226 = load i8, ptr %225, align 1, !tbaa !48
  %227 = zext i8 %226 to i32
  %228 = sub nsw i32 %221, %227
  %229 = load i32, ptr %24, align 4, !tbaa !36
  %230 = mul nsw i32 4, %229
  %231 = add nsw i32 %228, %230
  %232 = add nsw i32 %231, 4
  %233 = ashr i32 %232, 3
  store i32 %233, ptr %27, align 4, !tbaa !36
  %234 = load i32, ptr %27, align 4, !tbaa !36
  %235 = load i32, ptr %19, align 4, !tbaa !36
  %236 = sub nsw i32 0, %235
  %237 = load i32, ptr %19, align 4, !tbaa !36
  %238 = call i32 @av_clip_c(i32 noundef %234, i32 noundef %236, i32 noundef %237) #12
  store i32 %238, ptr %26, align 4, !tbaa !36
  call void @llvm.lifetime.end.p0(i64 4, ptr %27) #11
  br label %239

239:                                              ; preds = %214, %204
  %240 = load ptr, ptr %8, align 8, !tbaa !46
  %241 = load i32, ptr %9, align 4, !tbaa !36
  %242 = sub nsw i32 0, %241
  %243 = sext i32 %242 to i64
  %244 = getelementptr inbounds i8, ptr %240, i64 %243
  %245 = load i8, ptr %244, align 1, !tbaa !48
  %246 = zext i8 %245 to i32
  %247 = load i32, ptr %26, align 4, !tbaa !36
  %248 = add nsw i32 %246, %247
  %249 = call zeroext i8 @av_clip_uint8_c(i32 noundef %248) #12
  %250 = load ptr, ptr %8, align 8, !tbaa !46
  %251 = load i32, ptr %9, align 4, !tbaa !36
  %252 = sub nsw i32 0, %251
  %253 = sext i32 %252 to i64
  %254 = getelementptr inbounds i8, ptr %250, i64 %253
  store i8 %249, ptr %254, align 1, !tbaa !48
  %255 = load ptr, ptr %8, align 8, !tbaa !46
  %256 = getelementptr inbounds i8, ptr %255, i64 0
  %257 = load i8, ptr %256, align 1, !tbaa !48
  %258 = zext i8 %257 to i32
  %259 = load i32, ptr %26, align 4, !tbaa !36
  %260 = sub nsw i32 %258, %259
  %261 = call zeroext i8 @av_clip_uint8_c(i32 noundef %260) #12
  %262 = load ptr, ptr %8, align 8, !tbaa !46
  %263 = getelementptr inbounds i8, ptr %262, i64 0
  store i8 %261, ptr %263, align 1, !tbaa !48
  call void @llvm.lifetime.end.p0(i64 4, ptr %26) #11
  br label %264

264:                                              ; preds = %239, %197, %191
  %265 = load i32, ptr %10, align 4, !tbaa !36
  %266 = load ptr, ptr %8, align 8, !tbaa !46
  %267 = sext i32 %265 to i64
  %268 = getelementptr inbounds i8, ptr %266, i64 %267
  store ptr %268, ptr %8, align 8, !tbaa !46
  call void @llvm.lifetime.end.p0(i64 4, ptr %25) #11
  call void @llvm.lifetime.end.p0(i64 4, ptr %24) #11
  br label %269

269:                                              ; preds = %264
  %270 = load i32, ptr %23, align 4, !tbaa !36
  %271 = add nsw i32 %270, 1
  store i32 %271, ptr %23, align 4, !tbaa !36
  br label %166, !llvm.loop !289

272:                                              ; preds = %169
  store i32 0, ptr %22, align 4
  br label %273

273:                                              ; preds = %272, %148
  call void @llvm.lifetime.end.p0(i64 4, ptr %21) #11
  call void @llvm.lifetime.end.p0(i64 4, ptr %20) #11
  call void @llvm.lifetime.end.p0(i64 4, ptr %19) #11
  call void @llvm.lifetime.end.p0(i64 4, ptr %18) #11
  call void @llvm.lifetime.end.p0(i64 4, ptr %17) #11
  call void @llvm.lifetime.end.p0(i64 4, ptr %16) #11
  call void @llvm.lifetime.end.p0(i64 4, ptr %15) #11
  %274 = load i32, ptr %22, align 4
  switch i32 %274, label %276 [
    i32 0, label %275
    i32 1, label %275
  ]

275:                                              ; preds = %273, %273
  ret void

276:                                              ; preds = %273
  unreachable
}