; Function Attrs: nofree norecurse nosync nounwind memory(argmem: readwrite) uwtable
define internal fastcc void @filter_chroma_edge(ptr noundef captures(none) %0, i32 noundef %1, i32 noundef %2, i32 noundef range(i32 0, 256) %3, i32 noundef range(i32 0, 256) %4, i32 noundef range(i32 0, 256) %5, i32 noundef range(i32 0, 1021) %6) unnamed_addr #9 {
  %8 = mul nsw i32 %1, -2
  %9 = sext i32 %8 to i64
  %10 = getelementptr inbounds i8, ptr %0, i64 %9
  %11 = load i8, ptr %10, align 1, !tbaa !42
  %12 = zext i8 %11 to i32
  %13 = sub nsw i32 0, %1
  %14 = sext i32 %13 to i64
  %15 = getelementptr inbounds i8, ptr %0, i64 %14
  %16 = load i8, ptr %15, align 1, !tbaa !42
  %17 = zext i8 %16 to i32
  %18 = sub nsw i32 %12, %17
  %19 = tail call i32 @llvm.abs.i32(i32 %18, i1 true)
  %20 = shl nuw nsw i32 %19, 2
  %21 = sext i32 %1 to i64
  %22 = getelementptr inbounds i8, ptr %0, i64 %21
  %23 = load i8, ptr %22, align 1, !tbaa !42
  %24 = zext i8 %23 to i32
  %25 = load i8, ptr %0, align 1, !tbaa !42
  %26 = zext i8 %25 to i32
  %27 = sub nsw i32 %24, %26
  %28 = tail call i32 @llvm.abs.i32(i32 %27, i1 true)
  %29 = shl nuw nsw i32 %28, 2
  %30 = icmp samesign uge i32 %20, %6
  %31 = icmp samesign uge i32 %29, %6
  %.not80 = and i1 %30, %31
  br i1 %.not80, label %.loopexit, label %32

32:                                               ; preds = %7
  %33 = select i1 %30, i32 1, i32 3
  %34 = select i1 %31, i32 1, i32 3
  %35 = add nuw nsw i32 %4, %3
  %36 = add nuw nsw i32 %35, %33
  %37 = add nuw nsw i32 %36, %34
  %38 = lshr i32 %37, 1
  %or.cond = or i1 %30, %31
  %or.cond.fr = freeze i1 %or.cond
  %. = select i1 %or.cond.fr, i32 384, i32 256
  %39 = sext i32 %2 to i64
  %40 = sub nsw i32 0, %38
  %41 = lshr i32 %37, 2
  %42 = sub nsw i32 0, %41
  br i1 %or.cond.fr, label %.split.us, label %.split

.split.us:                                        ; preds = %32, %66
  %.090.us = phi ptr [ %67, %66 ], [ %0, %32 ]
  %43 = phi i1 [ false, %66 ], [ true, %32 ]
  %44 = load i8, ptr %.090.us, align 1, !tbaa !42
  %45 = zext i8 %44 to i32
  %46 = getelementptr inbounds i8, ptr %.090.us, i64 %14
  %47 = load i8, ptr %46, align 1, !tbaa !42
  %48 = zext i8 %47 to i32
  %49 = sub nsw i32 %45, %48
  %.not.us = icmp eq i8 %44, %47
  br i1 %.not.us, label %66, label %50

50:                                               ; preds = %.split.us
  %51 = tail call i32 @llvm.abs.i32(i32 %49, i1 true)
  %52 = mul nuw nsw i32 %51, %5
  %53 = and i32 %52, 2147483520
  %.not81.us = icmp samesign ugt i32 %53, %.
  br i1 %.not81.us, label %66, label %54

54:                                               ; preds = %50
  %55 = add nsw i32 %49, 1
  %56 = ashr i32 %55, 1
  %57 = icmp slt i32 %56, %42
  %..i.us = tail call i32 @llvm.smin.i32(i32 %56, i32 %41)
  %.0.i86.us = select i1 %57, i32 %42, i32 %..i.us
  %58 = add nsw i32 %.0.i86.us, %48
  %.not.i83.us = icmp ult i32 %58, 256
  %isnotneg.i84.us = icmp sgt i32 %58, -1
  %59 = sext i1 %isnotneg.i84.us to i8
  %60 = trunc nuw i32 %58 to i8
  %.0.i85.us = select i1 %.not.i83.us, i8 %60, i8 %59
  store i8 %.0.i85.us, ptr %46, align 1, !tbaa !42
  %61 = load i8, ptr %.090.us, align 1, !tbaa !42
  %62 = zext i8 %61 to i32
  %63 = sub nsw i32 %62, %.0.i86.us
  %.not.i.us = icmp ult i32 %63, 256
  %isnotneg.i.us = icmp sgt i32 %63, -1
  %64 = sext i1 %isnotneg.i.us to i8
  %65 = trunc nuw i32 %63 to i8
  %.0.i.us = select i1 %.not.i.us, i8 %65, i8 %64
  store i8 %.0.i.us, ptr %.090.us, align 1, !tbaa !42
  br label %66

66:                                               ; preds = %54, %50, %.split.us
  %67 = getelementptr inbounds i8, ptr %.090.us, i64 %39
  br i1 %43, label %.split.us, label %.loopexit, !llvm.loop !269

.split:                                           ; preds = %32, %100
  %.090 = phi ptr [ %101, %100 ], [ %0, %32 ]
  %68 = phi i1 [ false, %100 ], [ true, %32 ]
  %69 = load i8, ptr %.090, align 1, !tbaa !42
  %70 = zext i8 %69 to i32
  %71 = getelementptr inbounds i8, ptr %.090, i64 %14
  %72 = load i8, ptr %71, align 1, !tbaa !42
  %73 = zext i8 %72 to i32
  %74 = sub nsw i32 %70, %73
  %.not = icmp eq i8 %69, %72
  br i1 %.not, label %100, label %75

75:                                               ; preds = %.split
  %76 = tail call i32 @llvm.abs.i32(i32 %74, i1 true)
  %77 = mul nuw nsw i32 %76, %5
  %78 = and i32 %77, 2147483520
  %.not81 = icmp samesign ugt i32 %78, %.
  br i1 %.not81, label %100, label %79

79:                                               ; preds = %75
  %80 = getelementptr inbounds i8, ptr %.090, i64 %9
  %81 = load i8, ptr %80, align 1, !tbaa !42
  %82 = zext i8 %81 to i32
  %83 = getelementptr inbounds i8, ptr %.090, i64 %21
  %84 = load i8, ptr %83, align 1, !tbaa !42
  %85 = zext i8 %84 to i32
  %86 = shl nsw i32 %74, 2
  %87 = add nsw i32 %86, 4
  %88 = add nsw i32 %87, %82
  %89 = sub nsw i32 %88, %85
  %90 = ashr i32 %89, 3
  %91 = icmp slt i32 %90, %40
  %..i87 = tail call i32 @llvm.smin.i32(i32 %90, i32 %38)
  %.0.i88 = select i1 %91, i32 %40, i32 %..i87
  %92 = add nsw i32 %.0.i88, %73
  %.not.i83 = icmp ult i32 %92, 256
  %isnotneg.i84 = icmp sgt i32 %92, -1
  %93 = sext i1 %isnotneg.i84 to i8
  %94 = trunc nuw i32 %92 to i8
  %.0.i85 = select i1 %.not.i83, i8 %94, i8 %93
  store i8 %.0.i85, ptr %71, align 1, !tbaa !42
  %95 = load i8, ptr %.090, align 1, !tbaa !42
  %96 = zext i8 %95 to i32
  %97 = sub nsw i32 %96, %.0.i88
  %.not.i = icmp ult i32 %97, 256
  %isnotneg.i = icmp sgt i32 %97, -1
  %98 = sext i1 %isnotneg.i to i8
  %99 = trunc nuw i32 %97 to i8
  %.0.i = select i1 %.not.i, i8 %99, i8 %98
  store i8 %.0.i, ptr %.090, align 1, !tbaa !42
  br label %100

100:                                              ; preds = %79, %75, %.split
  %101 = getelementptr inbounds i8, ptr %.090, i64 %39
  br i1 %68, label %.split, label %.loopexit, !llvm.loop !269

.loopexit:                                        ; preds = %100, %66, %7
  ret void
}